; Function Attrs: nounwind uwtable
define range(i32 0, 2) i32 @Abc_NtkMultiLimit_rec(ptr noundef %0, ptr noundef %1, i32 noundef %2, i32 noundef %3, i32 noundef %4) local_unnamed_addr #0 {
  %6 = getelementptr inbounds nuw i8, ptr %1, i64 4
  %7 = icmp eq i32 %4, 0
  br label %tailrecurse

tailrecurse:                                      ; preds = %tailrecurse.backedge, %5
  %.tr = phi ptr [ %0, %5 ], [ %.tr.be, %tailrecurse.backedge ]
  %.tr63 = phi i32 [ %3, %5 ], [ %.sink, %tailrecurse.backedge ]
  %.tr64 = phi i1 [ %7, %5 ], [ true, %tailrecurse.backedge ]
  %ret.tr = phi i32 [ poison, %5 ], [ %current.ret.tr, %tailrecurse.backedge ]
  %ret.known.tr = phi i1 [ false, %5 ], [ true, %tailrecurse.backedge ]
  br i1 %.tr64, label %8, label %51

8:                                                ; preds = %tailrecurse
  %9 = getelementptr inbounds nuw i8, ptr %.tr, i64 20
  %10 = load i32, ptr %9, align 4
  %11 = and i32 %10, 31
  %or.cond = icmp eq i32 %11, 7
  br i1 %or.cond, label %51, label %12

12:                                               ; preds = %8
  %13 = load i32, ptr %6, align 4, !tbaa !24
  %14 = icmp sgt i32 %13, 0
  br i1 %14, label %.lr.ph.i, label %._crit_edge.i

.lr.ph.i:                                         ; preds = %12
  %15 = getelementptr inbounds nuw i8, ptr %1, i64 8
  %16 = load ptr, ptr %15, align 8, !tbaa !27
  %wide.trip.count.i = zext nneg i32 %13 to i64
  br label %18

17:                                               ; preds = %18
  %indvars.iv.next.i = add nuw nsw i64 %indvars.iv.i, 1
  %exitcond.not.i = icmp eq i64 %indvars.iv.next.i, %wide.trip.count.i
  br i1 %exitcond.not.i, label %._crit_edge.i, label %18, !llvm.loop !56

18:                                               ; preds = %17, %.lr.ph.i
  %indvars.iv.i = phi i64 [ 0, %.lr.ph.i ], [ %indvars.iv.next.i, %17 ]
  %19 = getelementptr inbounds nuw ptr, ptr %16, i64 %indvars.iv.i
  %20 = load ptr, ptr %19, align 8, !tbaa !28
  %21 = icmp eq ptr %20, %.tr
  br i1 %21, label %Vec_PtrPushUnique.exit, label %17

._crit_edge.i:                                    ; preds = %17, %12
  %22 = load i32, ptr %1, align 8, !tbaa !51
  %23 = icmp eq i32 %13, %22
  br i1 %23, label %24, label %.Vec_PtrGrow.exit11_crit_edge.i.i

.Vec_PtrGrow.exit11_crit_edge.i.i:                ; preds = %._crit_edge.i
  %.phi.trans.insert.i.i = getelementptr inbounds nuw i8, ptr %1, i64 8
  %.pre.i.i = load ptr, ptr %.phi.trans.insert.i.i, align 8, !tbaa !27
  br label %Vec_PtrPush.exit.i

24:                                               ; preds = %._crit_edge.i
  %25 = icmp slt i32 %13, 16
  br i1 %25, label %26, label %34

26:                                               ; preds = %24
  %27 = getelementptr inbounds nuw i8, ptr %1, i64 8
  %28 = load ptr, ptr %27, align 8, !tbaa !27
  %.not9.i.i.i = icmp eq ptr %28, null
  br i1 %.not9.i.i.i, label %31, label %29

29:                                               ; preds = %26
  %30 = tail call dereferenceable_or_null(128) ptr @realloc(ptr noundef nonnull %28, i64 noundef 128) #8
  br label %Vec_PtrGrow.exit.i.i

31:                                               ; preds = %26
  %32 = tail call noalias dereferenceable_or_null(128) ptr @malloc(i64 noundef 128) #7
  br label %Vec_PtrGrow.exit.i.i

Vec_PtrGrow.exit.i.i:                             ; preds = %31, %29
  %33 = phi ptr [ %30, %29 ], [ %32, %31 ]
  store ptr %33, ptr %27, align 8, !tbaa !27
  store i32 16, ptr %1, align 8, !tbaa !51
  br label %Vec_PtrPush.exit.i

34:                                               ; preds = %24
  %35 = shl nuw nsw i32 %13, 1
  %36 = getelementptr inbounds nuw i8, ptr %1, i64 8
  %37 = load ptr, ptr %36, align 8, !tbaa !27
  %.not9.i10.i.i = icmp eq ptr %37, null
  %38 = zext nneg i32 %35 to i64
  %39 = shl nuw nsw i64 %38, 3
  br i1 %.not9.i10.i.i, label %42, label %40

40:                                               ; preds = %34
  %41 = tail call ptr @realloc(ptr noundef nonnull %37, i64 noundef %39) #8
  br label %44

42:                                               ; preds = %34
  %43 = tail call noalias ptr @malloc(i64 noundef %39) #7
  br label %44

44:                                               ; preds = %42, %40
  %45 = phi ptr [ %41, %40 ], [ %43, %42 ]
  store ptr %45, ptr %36, align 8, !tbaa !27
  store i32 %35, ptr %1, align 8, !tbaa !51
  br label %Vec_PtrPush.exit.i

Vec_PtrPush.exit.i:                               ; preds = %44, %Vec_PtrGrow.exit.i.i, %.Vec_PtrGrow.exit11_crit_edge.i.i
  %46 = phi ptr [ %.pre.i.i, %.Vec_PtrGrow.exit11_crit_edge.i.i ], [ %45, %44 ], [ %33, %Vec_PtrGrow.exit.i.i ]
  %47 = load i32, ptr %6, align 4, !tbaa !24
  %48 = add nsw i32 %47, 1
  store i32 %48, ptr %6, align 4, !tbaa !24
  %49 = sext i32 %47 to i64
  %50 = getelementptr inbounds ptr, ptr %46, i64 %49
  store ptr %.tr, ptr %50, align 8, !tbaa !28
  br label %Vec_PtrPushUnique.exit

51:                                               ; preds = %8, %tailrecurse
  %.not40 = icmp eq i32 %.tr63, 0
  %.val44 = load ptr, ptr %.tr, align 8, !tbaa !32
  %52 = getelementptr i8, ptr %.tr, i64 32
  %.val45 = load ptr, ptr %52, align 8, !tbaa !33
  %53 = getelementptr i8, ptr %.val44, i64 32
  %.val44.val = load ptr, ptr %53, align 8, !tbaa !3
  %54 = getelementptr i8, ptr %.val44.val, i64 8
  %.val44.val.val = load ptr, ptr %54, align 8, !tbaa !27
  %55 = load i32, ptr %.val45, align 4, !tbaa !34
  %56 = sext i32 %55 to i64
  %57 = getelementptr inbounds ptr, ptr %.val44.val.val, i64 %56
  %58 = load ptr, ptr %57, align 8, !tbaa !28
  br i1 %.not40, label %59, label %67

59:                                               ; preds = %51
  %60 = tail call i32 @Abc_NtkMultiLimit_rec(ptr noundef %58, ptr noundef %1, i32 noundef %2, i32 noundef 0, i32 noundef 0)
  br label %tailrecurse.backedge

tailrecurse.backedge:                             ; preds = %59, %91
  %.sink = phi i32 [ 0, %59 ], [ 1, %91 ]
  %.val46 = load ptr, ptr %.tr, align 8, !tbaa !32
  %.val47 = load ptr, ptr %52, align 8, !tbaa !33
  %61 = getelementptr i8, ptr %.val46, i64 32
  %.val46.val = load ptr, ptr %61, align 8, !tbaa !3
  %62 = getelementptr i8, ptr %.val46.val, i64 8
  %.val46.val.val = load ptr, ptr %62, align 8, !tbaa !27
  %63 = getelementptr inbounds nuw i8, ptr %.val47, i64 4
  %64 = load i32, ptr %63, align 4, !tbaa !34
  %65 = sext i32 %64 to i64
  %66 = getelementptr inbounds ptr, ptr %.val46.val.val, i64 %65
  %current.ret.tr = select i1 %ret.known.tr, i32 %ret.tr, i32 %.sink
  %.tr.be = load ptr, ptr %66, align 8, !tbaa !28
  br label %tailrecurse

67:                                               ; preds = %51
  %68 = tail call i32 @Abc_NtkMultiLimit_rec(ptr noundef %58, ptr noundef %1, i32 noundef %2, i32 noundef 1, i32 noundef 0)
  %.not41 = icmp eq i32 %68, 0
  br i1 %.not41, label %69, label %Vec_PtrPushUnique.exit

69:                                               ; preds = %67
  %70 = load i32, ptr %6, align 4, !tbaa !24
  %.val50 = load ptr, ptr %.tr, align 8, !tbaa !32
  %.val51 = load ptr, ptr %52, align 8, !tbaa !33
  %71 = getelementptr i8, ptr %.val50, i64 32
  %.val50.val = load ptr, ptr %71, align 8, !tbaa !3
  %72 = getelementptr i8, ptr %.val50.val, i64 8
  %.val50.val.val = load ptr, ptr %72, align 8, !tbaa !27
  %73 = getelementptr inbounds nuw i8, ptr %.val51, i64 4
  %74 = load i32, ptr %73, align 4, !tbaa !34
  %75 = sext i32 %74 to i64
  %76 = getelementptr inbounds ptr, ptr %.val50.val.val, i64 %75
  %77 = load ptr, ptr %76, align 8, !tbaa !28
  %78 = tail call i32 @Abc_NtkMultiLimit_rec(ptr noundef %77, ptr noundef %1, i32 noundef %2, i32 noundef 0, i32 noundef 0)
  %79 = load i32, ptr %6, align 4, !tbaa !24
  %.not42 = icmp sgt i32 %79, %2
  br i1 %.not42, label %80, label %Vec_PtrPushUnique.exit

80:                                               ; preds = %69
  store i32 0, ptr %6, align 4, !tbaa !24
  %.val52 = load ptr, ptr %.tr, align 8, !tbaa !32
  %.val53 = load ptr, ptr %52, align 8, !tbaa !33
  %81 = getelementptr i8, ptr %.val52, i64 32
  %.val52.val = load ptr, ptr %81, align 8, !tbaa !3
  %82 = getelementptr i8, ptr %.val52.val, i64 8
  %.val52.val.val = load ptr, ptr %82, align 8, !tbaa !27
  %83 = getelementptr inbounds nuw i8, ptr %.val53, i64 4
  %84 = load i32, ptr %83, align 4, !tbaa !34
  %85 = sext i32 %84 to i64
  %86 = getelementptr inbounds ptr, ptr %.val52.val.val, i64 %85
  %87 = load ptr, ptr %86, align 8, !tbaa !28
  %88 = tail call i32 @Abc_NtkMultiLimit_rec(ptr noundef %87, ptr noundef nonnull %1, i32 noundef %2, i32 noundef 0, i32 noundef 0)
  %89 = load i32, ptr %6, align 4, !tbaa !24
  %90 = icmp sgt i32 %89, %2
  br i1 %90, label %91, label %92

91:                                               ; preds = %80
  store i32 0, ptr %6, align 4, !tbaa !24
  br label %tailrecurse.backedge

92:                                               ; preds = %80
  %.not43 = icmp slt i32 %70, %89
  %.val58 = load ptr, ptr %.tr, align 8, !tbaa !32
  %.val59 = load ptr, ptr %52, align 8, !tbaa !33
  %93 = getelementptr i8, ptr %.val58, i64 32
  %.val58.val = load ptr, ptr %93, align 8, !tbaa !3
  %94 = getelementptr i8, ptr %.val58.val, i64 8
  %.val58.val.val = load ptr, ptr %94, align 8, !tbaa !27
  br i1 %.not43, label %103, label %95

95:                                               ; preds = %92
  %96 = load i32, ptr %.val59, align 4, !tbaa !34
  %97 = sext i32 %96 to i64
  %98 = getelementptr inbounds ptr, ptr %.val58.val.val, i64 %97
  %99 = load ptr, ptr %98, align 8, !tbaa !28
  %100 = getelementptr inbounds nuw i8, ptr %99, i64 20
  %101 = load i32, ptr %100, align 4
  %102 = or i32 %101, 16
  store i32 %102, ptr %100, align 4
  br label %Vec_PtrPushUnique.exit

103:                                              ; preds = %92
  %104 = getelementptr inbounds nuw i8, ptr %.val59, i64 4
  %105 = load i32, ptr %104, align 4, !tbaa !34
  %106 = sext i32 %105 to i64
  %107 = getelementptr inbounds ptr, ptr %.val58.val.val, i64 %106
  %108 = load ptr, ptr %107, align 8, !tbaa !28
  %109 = getelementptr inbounds nuw i8, ptr %108, i64 20
  %110 = load i32, ptr %109, align 4
  %111 = or i32 %110, 16
  store i32 %111, ptr %109, align 4
  br label %Vec_PtrPushUnique.exit

Vec_PtrPushUnique.exit:                           ; preds = %69, %67, %18, %Vec_PtrPush.exit.i, %95, %103
  %.0 = phi i32 [ 1, %103 ], [ 1, %95 ], [ 0, %Vec_PtrPush.exit.i ], [ 0, %18 ], [ 0, %69 ], [ 1, %67 ]
  %current.ret.tr66 = select i1 %ret.known.tr, i32 %ret.tr, i32 %.0
  ret i32 %current.ret.tr66
}